target datalayout = "e-m:e-p270:32:32-p271:32:32-p272:64:64-i64:64-i128:128-f80:128-n8:16:32:64-S128"
target triple = "x86_64-unknown-linux-gnu"

%"struct.google::protobuf::compiler::cpp::EnumGenerator::ValueLimits" = type { ptr, ptr }
%"class.google::protobuf::compiler::cpp::EnumGenerator" = type { ptr, %"struct.google::protobuf::compiler::cpp::Options", i8, i8, i8, %"struct.google::protobuf::compiler::cpp::EnumGenerator::ValueLimits" }
%"struct.google::protobuf::compiler::cpp::Options" = type <{ ptr, ptr, %"class.std::__cxx11::basic_string", %"class.std::__cxx11::basic_string", %"class.std::__cxx11::basic_string", %"class.std::__cxx11::basic_string", %"struct.google::protobuf::compiler::cpp::FieldListenerOptions", i32, i32, i8, i8, i8, i8, i8, i8, i8, i8, i8, i8, i8, i8, i8, i8, [2 x i8] }>
%"class.std::__cxx11::basic_string" = type { %"struct.std::__cxx11::basic_string<char>::_Alloc_hider", i64, %union.anon }
%"struct.std::__cxx11::basic_string<char>::_Alloc_hider" = type { ptr }
%union.anon = type { i64, [8 x i8] }
%"struct.google::protobuf::compiler::cpp::FieldListenerOptions" = type { i8, %"class.absl::lts_20230802::flat_hash_set" }
%"class.absl::lts_20230802::flat_hash_set" = type { %"class.absl::lts_20230802::container_internal::raw_hash_set" }
%"class.absl::lts_20230802::container_internal::raw_hash_set" = type { %"class.absl::lts_20230802::container_internal::CompressedTuple" }
%"class.absl::lts_20230802::container_internal::CompressedTuple" = type { %"struct.absl::lts_20230802::container_internal::internal_compressed_tuple::CompressedTupleImpl" }
%"struct.absl::lts_20230802::container_internal::internal_compressed_tuple::CompressedTupleImpl" = type { %"struct.absl::lts_20230802::container_internal::internal_compressed_tuple::Storage" }
%"struct.absl::lts_20230802::container_internal::internal_compressed_tuple::Storage" = type { %"class.absl::lts_20230802::container_internal::CommonFields" }
%"class.absl::lts_20230802::container_internal::CommonFields" = type { ptr, ptr, i64, %"class.absl::lts_20230802::container_internal::CompressedTuple.1" }
%"class.absl::lts_20230802::container_internal::CompressedTuple.1" = type { %"struct.absl::lts_20230802::container_internal::internal_compressed_tuple::CompressedTupleImpl.2" }
%"struct.absl::lts_20230802::container_internal::internal_compressed_tuple::CompressedTupleImpl.2" = type { %"struct.absl::lts_20230802::container_internal::internal_compressed_tuple::Storage.3" }
%"struct.absl::lts_20230802::container_internal::internal_compressed_tuple::Storage.3" = type { i64 }
%"class.absl::lts_20230802::Cleanup" = type { %"class.absl::lts_20230802::cleanup_internal::Storage" }
%"class.absl::lts_20230802::cleanup_internal::Storage" = type { i8, [7 x i8], [8 x i8] }
%"class.absl::lts_20230802::flat_hash_map.33" = type { %"class.absl::lts_20230802::container_internal::raw_hash_map.34" }
%"class.absl::lts_20230802::container_internal::raw_hash_map.34" = type { %"class.absl::lts_20230802::container_internal::raw_hash_set.35" }
%"class.absl::lts_20230802::container_internal::raw_hash_set.35" = type { %"class.absl::lts_20230802::container_internal::CompressedTuple.36" }
%"class.absl::lts_20230802::container_internal::CompressedTuple.36" = type { %"struct.absl::lts_20230802::container_internal::internal_compressed_tuple::CompressedTupleImpl.37" }
%"struct.absl::lts_20230802::container_internal::internal_compressed_tuple::CompressedTupleImpl.37" = type { %"struct.absl::lts_20230802::container_internal::internal_compressed_tuple::Storage" }
%"class.absl::lts_20230802::Span" = type { ptr, i64 }
%"class.std::basic_string_view" = type { i64, ptr }

@.str.22 = private unnamed_addr constant [80 x i8] c"\0A    template <>\0A    struct is_proto_enum<$::Msg_Enum$> : std::true_type {};\0A  \00", align 1
@.str.23 = private unnamed_addr constant [135 x i8] c"\0A    template <>\0A    inline const EnumDescriptor* GetEnumDescriptor<$::Msg_Enum$>() {\0A      return $::Msg_Enum$_descriptor();\0A    }\0A  \00", align 1

; Function Attrs: mustprogress nounwind uwtable
define linkonce_odr hidden void @_ZN4absl12lts_202308024SpanIKN6google8protobuf2io7Printer3SubEEC2EPS7_m(ptr noundef nonnull align 8 dereferenceable(16) %this, ptr noundef %array, i64 noundef %length) unnamed_addr #5 comdat align 2 {
entry:
  %this.addr = alloca ptr, align 8
  %array.addr = alloca ptr, align 8
  %length.addr = alloca i64, align 8
  store ptr %this, ptr %this.addr, align 8
  store ptr %array, ptr %array.addr, align 8
  store i64 %length, ptr %length.addr, align 8
  %this1 = load ptr, ptr %this.addr, align 8
  %ptr_ = getelementptr inbounds %"class.absl::lts_20230802::Span", ptr %this1, i32 0, i32 0
  %0 = load ptr, ptr %array.addr, align 8
  store ptr %0, ptr %ptr_, align 8
  %len_ = getelementptr inbounds %"class.absl::lts_20230802::Span", ptr %this1, i32 0, i32 1
  %1 = load i64, ptr %length.addr, align 8
  store i64 %1, ptr %len_, align 8
  ret void
}

; Function Attrs: mustprogress nounwind uwtable
define linkonce_odr hidden void @_ZN4absl12lts_202308024SpanIKN6google8protobuf2io7Printer3SubEEC2Ev(ptr noundef nonnull align 8 dereferenceable(16) %this) unnamed_addr #5 comdat align 2 {
entry:
  %this.addr = alloca ptr, align 8
  store ptr %this, ptr %this.addr, align 8
  %this1 = load ptr, ptr %this.addr, align 8
  call void @_ZN4absl12lts_202308024SpanIKN6google8protobuf2io7Printer3SubEEC2EPS7_m(ptr noundef nonnull align 8 dereferenceable(16) %this1, ptr noundef null, i64 noundef 0) #3
  ret void
}

; Function Attrs: mustprogress nounwind uwtable
define linkonce_odr hidden noundef i64 @_ZNSt11char_traitsIcE6lengthEPKc(ptr noundef %__s) #5 comdat align 2 {
entry:
  %__s.addr = alloca ptr, align 8
  store ptr %__s, ptr %__s.addr, align 8
  %0 = load ptr, ptr %__s.addr, align 8
  %call = call i64 @strlen(ptr noundef %0) #3
  ret i64 %call
}

; Function Attrs: mustprogress uwtable
define linkonce_odr hidden void @_ZN6google8protobuf2io7Printer4EmitESt17basic_string_viewIcSt11char_traitsIcEENS2_14SourceLocationE(ptr noundef nonnull align 8 dereferenceable(256) %this, i64 %format.coerce0, ptr %format.coerce1) #4 comdat align 2 {
entry:
  %format = alloca %"class.std::basic_string_view", align 8
  %this.addr = alloca ptr, align 8
  %agg.tmp = alloca %"class.absl::lts_20230802::Span", align 8
  %agg.tmp2 = alloca %"class.std::basic_string_view", align 8
  %0 = getelementptr inbounds { i64, ptr }, ptr %format, i32 0, i32 0
  store i64 %format.coerce0, ptr %0, align 8
  %1 = getelementptr inbounds { i64, ptr }, ptr %format, i32 0, i32 1
  store ptr %format.coerce1, ptr %1, align 8
  store ptr %this, ptr %this.addr, align 8
  %this1 = load ptr, ptr %this.addr, align 8
  call void @_ZN4absl12lts_202308024SpanIKN6google8protobuf2io7Printer3SubEEC2Ev(ptr noundef nonnull align 8 dereferenceable(16) %agg.tmp) #3
  call void @llvm.memcpy.p0.p0.i64(ptr align 8 %agg.tmp2, ptr align 8 %format, i64 16, i1 false)
  %2 = getelementptr inbounds { ptr, i64 }, ptr %agg.tmp, i32 0, i32 0
  %3 = load ptr, ptr %2, align 8
  %4 = getelementptr inbounds { ptr, i64 }, ptr %agg.tmp, i32 0, i32 1
  %5 = load i64, ptr %4, align 8
  %6 = getelementptr inbounds { i64, ptr }, ptr %agg.tmp2, i32 0, i32 0
  %7 = load i64, ptr %6, align 8
  %8 = getelementptr inbounds { i64, ptr }, ptr %agg.tmp2, i32 0, i32 1
  %9 = load ptr, ptr %8, align 8
  call void @_ZN6google8protobuf2io7Printer4EmitEN4absl12lts_202308024SpanIKNS2_3SubEEESt17basic_string_viewIcSt11char_traitsIcEENS2_14SourceLocationE(ptr noundef nonnull align 8 dereferenceable(256) %this1, ptr %3, i64 %5, i64 %7, ptr %9)
  ret void
}

; Function Attrs: mustprogress nounwind uwtable
define linkonce_odr hidden void @_ZN6google8protobuf2io7Printer14SourceLocation7currentEv() #5 comdat align 2 {
entry:
  ret void
}

; Function Attrs: mustprogress nounwind uwtable
define linkonce_odr hidden void @_ZNSt17basic_string_viewIcSt11char_traitsIcEEC2EPKc(ptr noundef nonnull align 8 dereferenceable(16) %this, ptr noundef nonnull %__str) unnamed_addr #5 comdat align 2 personality ptr @__gxx_personality_v0 {
entry:
  %this.addr = alloca ptr, align 8
  %__str.addr = alloca ptr, align 8
  store ptr %this, ptr %this.addr, align 8
  store ptr %__str, ptr %__str.addr, align 8
  %this1 = load ptr, ptr %this.addr, align 8
  %_M_len = getelementptr inbounds %"class.std::basic_string_view", ptr %this1, i32 0, i32 0
  %0 = load ptr, ptr %__str.addr, align 8
  %call = invoke noundef i64 @_ZNSt11char_traitsIcE6lengthEPKc(ptr noundef %0)
          to label %invoke.cont unwind label %terminate.lpad

invoke.cont:                                      ; preds = %entry
  store i64 %call, ptr %_M_len, align 8
  %_M_str = getelementptr inbounds %"class.std::basic_string_view", ptr %this1, i32 0, i32 1
  %1 = load ptr, ptr %__str.addr, align 8
  store ptr %1, ptr %_M_str, align 8
  ret void

terminate.lpad:                                   ; preds = %entry
  %2 = landingpad { ptr, i32 }
          catch ptr null
  %3 = extractvalue { ptr, i32 } %2, 0
  call void @__clang_call_terminate(ptr %3) #20
  unreachable
}

; Function Attrs: mustprogress uwtable
define hidden void @_ZN6google8protobuf8compiler3cpp13EnumGenerator40GenerateGetEnumDescriptorSpecializationsEPNS0_2io7PrinterE(ptr noundef nonnull align 8 dereferenceable(240) %this, ptr noundef %p) #4 align 2 personality ptr @__gxx_personality_v0 {
entry:
  %this.addr = alloca ptr, align 8
  %p.addr = alloca ptr, align 8
  %v = alloca %"class.absl::lts_20230802::Cleanup", align 8
  %ref.tmp = alloca %"class.absl::lts_20230802::flat_hash_map.33", align 8
  %exn.slot = alloca ptr, align 8
  %ehselector.slot = alloca i32, align 4
  %agg.tmp = alloca %"class.std::basic_string_view", align 8
  %cleanup.dest.slot = alloca i32, align 4
  %agg.tmp7 = alloca %"class.std::basic_string_view", align 8
  store ptr %this, ptr %this.addr, align 8
  store ptr %p, ptr %p.addr, align 8
  %this1 = load ptr, ptr %this.addr, align 8
  %0 = load ptr, ptr %p.addr, align 8
  %enum_ = getelementptr inbounds %"class.google::protobuf::compiler::cpp::EnumGenerator", ptr %this1, i32 0, i32 0
  %1 = load ptr, ptr %enum_, align 8
  %options_ = getelementptr inbounds %"class.google::protobuf::compiler::cpp::EnumGenerator", ptr %this1, i32 0, i32 1
  %limits_ = getelementptr inbounds %"class.google::protobuf::compiler::cpp::EnumGenerator", ptr %this1, i32 0, i32 5
  %min = getelementptr inbounds %"struct.google::protobuf::compiler::cpp::EnumGenerator::ValueLimits", ptr %limits_, i32 0, i32 0
  %2 = load ptr, ptr %min, align 8
  %limits_2 = getelementptr inbounds %"class.google::protobuf::compiler::cpp::EnumGenerator", ptr %this1, i32 0, i32 5
  %max = getelementptr inbounds %"struct.google::protobuf::compiler::cpp::EnumGenerator::ValueLimits", ptr %limits_2, i32 0, i32 1
  %3 = load ptr, ptr %max, align 8
  call void @_ZN6google8protobuf8compiler3cpp12_GLOBAL__N_18EnumVarsB5cxx11EPKNS0_14EnumDescriptorERKNS2_7OptionsEPKNS0_19EnumValueDescriptorESC_(ptr sret(%"class.absl::lts_20230802::flat_hash_map.33") align 8 %ref.tmp, ptr noundef %1, ptr noundef nonnull align 8 dereferenceable(206) %options_, ptr noundef %2, ptr noundef %3)
  invoke void @_ZN6google8protobuf2io7Printer8WithVarsIN4absl12lts_2023080213flat_hash_mapISt17basic_string_viewIcSt11char_traitsIcEENSt7__cxx1112basic_stringIcS9_SaIcEEENS5_18container_internal10StringHashENSF_8StringEqESaISt4pairIKSA_SE_EEEEvvEEDaOT_(ptr sret(%"class.absl::lts_20230802::Cleanup") align 8 %v, ptr noundef nonnull align 8 dereferenceable(256) %0, ptr noundef nonnull align 8 dereferenceable(32) %ref.tmp)
          to label %invoke.cont unwind label %lpad

invoke.cont:                                      ; preds = %entry
  call void @_ZN4absl12lts_2023080213flat_hash_mapISt17basic_string_viewIcSt11char_traitsIcEENSt7__cxx1112basic_stringIcS4_SaIcEEENS0_18container_internal10StringHashENSA_8StringEqESaISt4pairIKS5_S9_EEED2Ev(ptr noundef nonnull align 8 dereferenceable(32) %ref.tmp) #3
  %4 = load ptr, ptr %p.addr, align 8
  call void @_ZNSt17basic_string_viewIcSt11char_traitsIcEEC2EPKc(ptr noundef nonnull align 8 dereferenceable(16) %agg.tmp, ptr noundef @.str.22) #3
  invoke void @_ZN6google8protobuf2io7Printer14SourceLocation7currentEv()
          to label %invoke.cont5 unwind label %lpad4

invoke.cont5:                                     ; preds = %invoke.cont
  %5 = getelementptr inbounds { i64, ptr }, ptr %agg.tmp, i32 0, i32 0
  %6 = load i64, ptr %5, align 8
  %7 = getelementptr inbounds { i64, ptr }, ptr %agg.tmp, i32 0, i32 1
  %8 = load ptr, ptr %7, align 8
  invoke void @_ZN6google8protobuf2io7Printer4EmitESt17basic_string_viewIcSt11char_traitsIcEENS2_14SourceLocationE(ptr noundef nonnull align 8 dereferenceable(256) %4, i64 %6, ptr %8)
          to label %invoke.cont6 unwind label %lpad4

invoke.cont6:                                     ; preds = %invoke.cont5
  %has_reflection_ = getelementptr inbounds %"class.google::protobuf::compiler::cpp::EnumGenerator", ptr %this1, i32 0, i32 4
  %9 = load i8, ptr %has_reflection_, align 2
  %tobool = trunc i8 %9 to i1
  br i1 %tobool, label %if.end, label %if.then

if.then:                                          ; preds = %invoke.cont6
  store i32 1, ptr %cleanup.dest.slot, align 4
  br label %cleanup

lpad:                                             ; preds = %entry
  %10 = landingpad { ptr, i32 }
          cleanup
  %11 = extractvalue { ptr, i32 } %10, 0
  store ptr %11, ptr %exn.slot, align 8
  %12 = extractvalue { ptr, i32 } %10, 1
  store i32 %12, ptr %ehselector.slot, align 4
  call void @_ZN4absl12lts_2023080213flat_hash_mapISt17basic_string_viewIcSt11char_traitsIcEENSt7__cxx1112basic_stringIcS4_SaIcEEENS0_18container_internal10StringHashENSA_8StringEqESaISt4pairIKS5_S9_EEED2Ev(ptr noundef nonnull align 8 dereferenceable(32) %ref.tmp) #3
  br label %eh.resume

lpad4:                                            ; preds = %invoke.cont9, %if.end, %invoke.cont5, %invoke.cont
  %13 = landingpad { ptr, i32 }
          cleanup
  %14 = extractvalue { ptr, i32 } %13, 0
  store ptr %14, ptr %exn.slot, align 8
  %15 = extractvalue { ptr, i32 } %13, 1
  store i32 %15, ptr %ehselector.slot, align 4
  call void @_ZN4absl12lts_202308027CleanupINS0_16cleanup_internal3TagEZN6google8protobuf2io7Printer8WithVarsINS0_13flat_hash_mapISt17basic_string_viewIcSt11char_traitsIcEENSt7__cxx1112basic_stringIcSC_SaIcEEENS0_18container_internal10StringHashENSI_8StringEqESaISt4pairIKSD_SH_EEEEvvEEDaOT_EUlvE_ED2Ev(ptr noundef nonnull align 8 dereferenceable(16) %v) #3
  br label %eh.resume

if.end:                                           ; preds = %invoke.cont6
  %16 = load ptr, ptr %p.addr, align 8
  call void @_ZNSt17basic_string_viewIcSt11char_traitsIcEEC2EPKc(ptr noundef nonnull align 8 dereferenceable(16) %agg.tmp7, ptr noundef @.str.23) #3
  invoke void @_ZN6google8protobuf2io7Printer14SourceLocation7currentEv()
          to label %invoke.cont9 unwind label %lpad4

invoke.cont9:                                     ; preds = %if.end
  %17 = getelementptr inbounds { i64, ptr }, ptr %agg.tmp7, i32 0, i32 0
  %18 = load i64, ptr %17, align 8
  %19 = getelementptr inbounds { i64, ptr }, ptr %agg.tmp7, i32 0, i32 1
  %20 = load ptr, ptr %19, align 8
  invoke void @_ZN6google8protobuf2io7Printer4EmitESt17basic_string_viewIcSt11char_traitsIcEENS2_14SourceLocationE(ptr noundef nonnull align 8 dereferenceable(256) %16, i64 %18, ptr %20)
          to label %invoke.cont11 unwind label %lpad4

invoke.cont11:                                    ; preds = %invoke.cont9
  store i32 0, ptr %cleanup.dest.slot, align 4
  br label %cleanup

cleanup:                                          ; preds = %invoke.cont11, %if.then
  call void @_ZN4absl12lts_202308027CleanupINS0_16cleanup_internal3TagEZN6google8protobuf2io7Printer8WithVarsINS0_13flat_hash_mapISt17basic_string_viewIcSt11char_traitsIcEENSt7__cxx1112basic_stringIcSC_SaIcEEENS0_18container_internal10StringHashENSI_8StringEqESaISt4pairIKSD_SH_EEEEvvEEDaOT_EUlvE_ED2Ev(ptr noundef nonnull align 8 dereferenceable(16) %v) #3
  %cleanup.dest = load i32, ptr %cleanup.dest.slot, align 4
  switch i32 %cleanup.dest, label %unreachable [
    i32 0, label %cleanup.cont
    i32 1, label %cleanup.cont
  ]

cleanup.cont:                                     ; preds = %cleanup, %cleanup
  ret void

eh.resume:                                        ; preds = %lpad4, %lpad
  %exn = load ptr, ptr %exn.slot, align 8
  %sel = load i32, ptr %ehselector.slot, align 4
  %lpad.val = insertvalue { ptr, i32 } poison, ptr %exn, 0
  %lpad.val12 = insertvalue { ptr, i32 } %lpad.val, i32 %sel, 1
  resume { ptr, i32 } %lpad.val12

unreachable:                                      ; preds = %cleanup
  unreachable
}