; Function Attrs: mustprogress uwtable
define hidden void @_ZN6google8protobuf8compiler3cpp13EnumGenerator40GenerateGetEnumDescriptorSpecializationsEPNS0_2io7PrinterE(ptr noundef nonnull align 8 dereferenceable(240) %this, ptr noundef %p) local_unnamed_addr #4 align 2 personality ptr @__gxx_personality_v0 {
entry:
  %v = alloca %"class.absl::lts_20230802::Cleanup", align 8
  %ref.tmp = alloca %"class.absl::lts_20230802::flat_hash_map.33", align 8
  %0 = load ptr, ptr %this, align 8
  %options_ = getelementptr inbounds i8, ptr %this, i64 8
  %limits_ = getelementptr inbounds i8, ptr %this, i64 224
  %1 = load ptr, ptr %limits_, align 8
  %max = getelementptr inbounds i8, ptr %this, i64 232
  %2 = load ptr, ptr %max, align 8
  call fastcc void @_ZN6google8protobuf8compiler3cpp12_GLOBAL__N_18EnumVarsB5cxx11EPKNS0_14EnumDescriptorERKNS2_7OptionsEPKNS0_19EnumValueDescriptorESC_(ptr noalias nonnull align 8 %ref.tmp, ptr noundef %0, ptr noundef nonnull align 8 dereferenceable(206) %options_, ptr noundef %1, ptr noundef %2)
  invoke void @_ZN6google8protobuf2io7Printer8WithVarsIN4absl12lts_2023080213flat_hash_mapISt17basic_string_viewIcSt11char_traitsIcEENSt7__cxx1112basic_stringIcS9_SaIcEEENS5_18container_internal10StringHashENSF_8StringEqESaISt4pairIKSA_SE_EEEEvvEEDaOT_(ptr nonnull sret(%"class.absl::lts_20230802::Cleanup") align 8 %v, ptr noundef nonnull align 8 dereferenceable(256) %p, ptr noundef nonnull align 8 dereferenceable(32) %ref.tmp)
          to label %invoke.cont unwind label %lpad

invoke.cont:                                      ; preds = %entry
  %capacity_.i.i.i.i.i = getelementptr inbounds i8, ptr %ref.tmp, i64 16
  %3 = load i64, ptr %capacity_.i.i.i.i.i, align 8
  %tobool.not.i.i.i = icmp eq i64 %3, 0
  br i1 %tobool.not.i.i.i, label %_ZN4absl12lts_2023080213flat_hash_mapISt17basic_string_viewIcSt11char_traitsIcEENSt7__cxx1112basic_stringIcS4_SaIcEEENS0_18container_internal10StringHashENSA_8StringEqESaISt4pairIKS5_S9_EEED2Ev.exit, label %if.end.i.i.i

if.end.i.i.i:                                     ; preds = %invoke.cont
  %4 = load ptr, ptr %ref.tmp, align 8
  %slots_.i.i.i.i.i.i = getelementptr inbounds i8, ptr %ref.tmp, i64 8
  %5 = load ptr, ptr %slots_.i.i.i.i.i.i, align 8
  br label %for.body.i.i.i.i

for.body.i.i.i.i:                                 ; preds = %for.inc.i.i.i.i, %if.end.i.i.i
  %i.05.i.i.i.i = phi i64 [ %inc.i.i.i.i, %for.inc.i.i.i.i ], [ 0, %if.end.i.i.i ]
  %arrayidx.i.i.i.i = getelementptr inbounds i8, ptr %4, i64 %i.05.i.i.i.i
  %6 = load i8, ptr %arrayidx.i.i.i.i, align 1
  %cmp.i.i.i.i.i = icmp sgt i8 %6, -1
  br i1 %cmp.i.i.i.i.i, label %if.then.i.i.i.i, label %for.inc.i.i.i.i

if.then.i.i.i.i:                                  ; preds = %for.body.i.i.i.i
  %second.i.i.i.i.i.i.i.i.i.i = getelementptr inbounds %"union.absl::lts_20230802::container_internal::map_slot_type", ptr %5, i64 %i.05.i.i.i.i, i32 0, i32 1
  call void @_ZNSt7__cxx1112basic_stringIcSt11char_traitsIcESaIcEED1Ev(ptr noundef nonnull align 8 dereferenceable(32) %second.i.i.i.i.i.i.i.i.i.i) #25
  br label %for.inc.i.i.i.i

for.inc.i.i.i.i:                                  ; preds = %if.then.i.i.i.i, %for.body.i.i.i.i
  %inc.i.i.i.i = add nuw i64 %i.05.i.i.i.i, 1
  %cmp.not.i.i.i.i = icmp eq i64 %inc.i.i.i.i, %3
  br i1 %cmp.not.i.i.i.i, label %invoke.cont13.i.i.i, label %for.body.i.i.i.i, !llvm.loop !8

invoke.cont13.i.i.i:                              ; preds = %for.inc.i.i.i.i
  %7 = load ptr, ptr %ref.tmp, align 8
  %add.ptr.i.i.i.i = getelementptr inbounds i8, ptr %7, i64 -8
  call void @_ZdlPv(ptr noundef nonnull %add.ptr.i.i.i.i) #26
  br label %_ZN4absl12lts_2023080213flat_hash_mapISt17basic_string_viewIcSt11char_traitsIcEENSt7__cxx1112basic_stringIcS4_SaIcEEENS0_18container_internal10StringHashENSA_8StringEqESaISt4pairIKS5_S9_EEED2Ev.exit

_ZN4absl12lts_2023080213flat_hash_mapISt17basic_string_viewIcSt11char_traitsIcEENSt7__cxx1112basic_stringIcS4_SaIcEEENS0_18container_internal10StringHashENSA_8StringEqESaISt4pairIKS5_S9_EEED2Ev.exit: ; preds = %invoke.cont, %invoke.cont13.i.i.i
  invoke void @_ZN6google8protobuf2io7Printer4EmitEN4absl12lts_202308024SpanIKNS2_3SubEEESt17basic_string_viewIcSt11char_traitsIcEENS2_14SourceLocationE(ptr noundef nonnull align 8 dereferenceable(256) %p, ptr null, i64 0, i64 79, ptr nonnull @.str.22)
          to label %invoke.cont6 unwind label %lpad4

invoke.cont6:                                     ; preds = %_ZN4absl12lts_2023080213flat_hash_mapISt17basic_string_viewIcSt11char_traitsIcEENSt7__cxx1112basic_stringIcS4_SaIcEEENS0_18container_internal10StringHashENSA_8StringEqESaISt4pairIKS5_S9_EEED2Ev.exit
  %has_reflection_ = getelementptr inbounds i8, ptr %this, i64 218
  %8 = load i8, ptr %has_reflection_, align 2
  %9 = and i8 %8, 1
  %tobool.not = icmp eq i8 %9, 0
  br i1 %tobool.not, label %cleanup, label %if.end

lpad:                                             ; preds = %entry
  %10 = landingpad { ptr, i32 }
          cleanup
  call void @_ZN4absl12lts_2023080213flat_hash_mapISt17basic_string_viewIcSt11char_traitsIcEENSt7__cxx1112basic_stringIcS4_SaIcEEENS0_18container_internal10StringHashENSA_8StringEqESaISt4pairIKS5_S9_EEED2Ev(ptr noundef nonnull align 8 dereferenceable(32) %ref.tmp) #25
  br label %eh.resume

lpad4:                                            ; preds = %if.end, %_ZN4absl12lts_2023080213flat_hash_mapISt17basic_string_viewIcSt11char_traitsIcEENSt7__cxx1112basic_stringIcS4_SaIcEEENS0_18container_internal10StringHashENSA_8StringEqESaISt4pairIKS5_S9_EEED2Ev.exit
  %11 = landingpad { ptr, i32 }
          cleanup
  call void @_ZN4absl12lts_202308027CleanupINS0_16cleanup_internal3TagEZN6google8protobuf2io7Printer8WithVarsINS0_13flat_hash_mapISt17basic_string_viewIcSt11char_traitsIcEENSt7__cxx1112basic_stringIcSC_SaIcEEENS0_18container_internal10StringHashENSI_8StringEqESaISt4pairIKSD_SH_EEEEvvEEDaOT_EUlvE_ED2Ev(ptr noundef nonnull align 8 dereferenceable(16) %v) #25
  br label %eh.resume

if.end:                                           ; preds = %invoke.cont6
  invoke void @_ZN6google8protobuf2io7Printer4EmitEN4absl12lts_202308024SpanIKNS2_3SubEEESt17basic_string_viewIcSt11char_traitsIcEENS2_14SourceLocationE(ptr noundef nonnull align 8 dereferenceable(256) %p, ptr null, i64 0, i64 134, ptr nonnull @.str.23)
          to label %cleanup unwind label %lpad4

cleanup:                                          ; preds = %if.end, %invoke.cont6
  %12 = load i8, ptr %v, align 8
  %13 = and i8 %12, 1
  %tobool.i.not.i = icmp eq i8 %13, 0
  br i1 %tobool.i.not.i, label %_ZN4absl12lts_202308027CleanupINS0_16cleanup_internal3TagEZN6google8protobuf2io7Printer8WithVarsINS0_13flat_hash_mapISt17basic_string_viewIcSt11char_traitsIcEENSt7__cxx1112basic_stringIcSC_SaIcEEENS0_18container_internal10StringHashENSI_8StringEqESaISt4pairIKSD_SH_EEEEvvEEDaOT_EUlvE_ED2Ev.exit, label %if.then.i

if.then.i:                                        ; preds = %cleanup
  %callback_buffer_.i.i.i.i = getelementptr inbounds i8, ptr %v, i64 8
  %14 = load ptr, ptr %callback_buffer_.i.i.i.i, align 8
  %_M_finish.i.i.i.i = getelementptr inbounds i8, ptr %14, i64 160
  %15 = load ptr, ptr %_M_finish.i.i.i.i, align 8
  %incdec.ptr.i.i.i.i = getelementptr inbounds i8, ptr %15, i64 -32
  store ptr %incdec.ptr.i.i.i.i, ptr %_M_finish.i.i.i.i, align 8
  %_M_manager.i.i.i.i.i.i.i.i = getelementptr inbounds i8, ptr %15, i64 -16
  %16 = load ptr, ptr %_M_manager.i.i.i.i.i.i.i.i, align 8
  %tobool.not.i.i.i.i.i.i.i.i = icmp eq ptr %16, null
  br i1 %tobool.not.i.i.i.i.i.i.i.i, label %_ZN4absl12lts_202308027CleanupINS0_16cleanup_internal3TagEZN6google8protobuf2io7Printer8WithVarsINS0_13flat_hash_mapISt17basic_string_viewIcSt11char_traitsIcEENSt7__cxx1112basic_stringIcSC_SaIcEEENS0_18container_internal10StringHashENSI_8StringEqESaISt4pairIKSD_SH_EEEEvvEEDaOT_EUlvE_ED2Ev.exit, label %if.then.i.i.i.i.i.i.i.i

if.then.i.i.i.i.i.i.i.i:                          ; preds = %if.then.i
  %call.i.i.i.i.i.i.i.i = invoke noundef zeroext i1 %16(ptr noundef nonnull align 8 dereferenceable(16) %incdec.ptr.i.i.i.i, ptr noundef nonnull align 8 dereferenceable(16) %incdec.ptr.i.i.i.i, i32 noundef 3)
          to label %_ZN4absl12lts_202308027CleanupINS0_16cleanup_internal3TagEZN6google8protobuf2io7Printer8WithVarsINS0_13flat_hash_mapISt17basic_string_viewIcSt11char_traitsIcEENSt7__cxx1112basic_stringIcSC_SaIcEEENS0_18container_internal10StringHashENSI_8StringEqESaISt4pairIKSD_SH_EEEEvvEEDaOT_EUlvE_ED2Ev.exit unwind label %terminate.lpad.i.i.i.i.i.i.i.i

terminate.lpad.i.i.i.i.i.i.i.i:                   ; preds = %if.then.i.i.i.i.i.i.i.i
  %17 = landingpad { ptr, i32 }
          catch ptr null
  %18 = extractvalue { ptr, i32 } %17, 0
  call void @__clang_call_terminate(ptr %18) #28
  unreachable

_ZN4absl12lts_202308027CleanupINS0_16cleanup_internal3TagEZN6google8protobuf2io7Printer8WithVarsINS0_13flat_hash_mapISt17basic_string_viewIcSt11char_traitsIcEENSt7__cxx1112basic_stringIcSC_SaIcEEENS0_18container_internal10StringHashENSI_8StringEqESaISt4pairIKSD_SH_EEEEvvEEDaOT_EUlvE_ED2Ev.exit: ; preds = %if.then.i, %if.then.i.i.i.i.i.i.i.i, %cleanup
  ret void

eh.resume:                                        ; preds = %lpad4, %lpad
  %.pn = phi { ptr, i32 } [ %11, %lpad4 ], [ %10, %lpad ]
  resume { ptr, i32 } %.pn
}